target datalayout = "e-m:e-p270:32:32-p271:32:32-p272:64:64-i64:64-i128:128-f80:128-n8:16:32:64-S128"
target triple = "x86_64-pc-linux-gnu"

@pow_table = internal global [2048 x float] zeroinitializer, align 16

; Function Attrs: cold nounwind optsize uwtable
define internal void @nellymoser_init_static() #0 {
  %1 = alloca i32, align 4
  %2 = alloca double, align 8
  store float 1.000000e+00, ptr @pow_table, align 16, !tbaa !31
  store float 0x3FE6A09E60000000, ptr getelementptr inbounds ([2048 x float], ptr @pow_table, i64 0, i64 1024), align 16, !tbaa !31
  call void @llvm.lifetime.start.p0(i64 4, ptr %1) #10
  store i32 1, ptr %1, align 4, !tbaa !43
  br label %3

3:                                                ; preds = %39, %0
  %4 = load i32, ptr %1, align 4, !tbaa !43
  %5 = icmp slt i32 %4, 513
  br i1 %5, label %7, label %6

6:                                                ; preds = %3
  call void @llvm.lifetime.end.p0(i64 4, ptr %1) #10
  br label %42

7:                                                ; preds = %3
  call void @llvm.lifetime.start.p0(i64 8, ptr %2) #10
  %8 = load i32, ptr %1, align 4, !tbaa !43
  %9 = sub nsw i32 0, %8
  %10 = sitofp i32 %9 to double
  %11 = fdiv nsz double %10, 2.048000e+03
  %12 = call nsz double @llvm.exp2.f64(double %11)
  store double %12, ptr %2, align 8, !tbaa !64
  %13 = load double, ptr %2, align 8, !tbaa !64
  %14 = fptrunc nsz double %13 to float
  %15 = load i32, ptr %1, align 4, !tbaa !43
  %16 = sext i32 %15 to i64
  %17 = getelementptr inbounds [2048 x float], ptr @pow_table, i64 0, i64 %16
  store float %14, ptr %17, align 4, !tbaa !31
  %18 = load double, ptr %2, align 8, !tbaa !64
  %19 = fdiv nsz double 0x3FE6A09E667F3BCD, %18
  %20 = fptrunc nsz double %19 to float
  %21 = load i32, ptr %1, align 4, !tbaa !43
  %22 = sub nsw i32 1024, %21
  %23 = sext i32 %22 to i64
  %24 = getelementptr inbounds [2048 x float], ptr @pow_table, i64 0, i64 %23
  store float %20, ptr %24, align 4, !tbaa !31
  %25 = load double, ptr %2, align 8, !tbaa !64
  %26 = fmul nsz double %25, 0x3FE6A09E667F3BCD
  %27 = fptrunc nsz double %26 to float
  %28 = load i32, ptr %1, align 4, !tbaa !43
  %29 = add nsw i32 1024, %28
  %30 = sext i32 %29 to i64
  %31 = getelementptr inbounds [2048 x float], ptr @pow_table, i64 0, i64 %30
  store float %27, ptr %31, align 4, !tbaa !31
  %32 = load double, ptr %2, align 8, !tbaa !64
  %33 = fdiv nsz double 5.000000e-01, %32
  %34 = fptrunc nsz double %33 to float
  %35 = load i32, ptr %1, align 4, !tbaa !43
  %36 = sub nsw i32 2048, %35
  %37 = sext i32 %36 to i64
  %38 = getelementptr inbounds [2048 x float], ptr @pow_table, i64 0, i64 %37
  store float %34, ptr %38, align 4, !tbaa !31
  call void @llvm.lifetime.end.p0(i64 8, ptr %2) #10
  br label %39

39:                                               ; preds = %7
  %40 = load i32, ptr %1, align 4, !tbaa !43
  %41 = add nsw i32 %40, 1
  store i32 %41, ptr %1, align 4, !tbaa !43
  br label %3, !llvm.loop !66

42:                                               ; preds = %6
  call void @ff_init_ff_sine_windows(i32 noundef 7)
  ret void
}