; Function Attrs: cold nounwind optsize uwtable
define internal void @nellymoser_init_static() #0 {
  store float 1.000000e+00, ptr @pow_table, align 16, !tbaa !27
  store float 0x3FE6A09E60000000, ptr getelementptr inbounds nuw (i8, ptr @pow_table, i64 4096), align 16, !tbaa !27
  br label %2

1:                                                ; preds = %2
  tail call void @ff_init_ff_sine_windows(i32 noundef 7) #9
  ret void

2:                                                ; preds = %0, %2
  %indvars.iv = phi i64 [ 1, %0 ], [ %indvars.iv.next, %2 ]
  %3 = trunc i64 %indvars.iv to i32
  %4 = sub i32 0, %3
  %5 = sitofp i32 %4 to double
  %6 = fmul nsz double %5, 0x3F40000000000000
  %7 = tail call nsz double @llvm.exp2.f64(double %6)
  %8 = fptrunc nsz double %7 to float
  %9 = getelementptr inbounds nuw [2048 x float], ptr @pow_table, i64 0, i64 %indvars.iv
  store float %8, ptr %9, align 4, !tbaa !27
  %10 = fdiv nsz double 0x3FE6A09E667F3BCD, %7
  %11 = fptrunc nsz double %10 to float
  %12 = sub nuw nsw i64 1024, %indvars.iv
  %13 = getelementptr inbounds nuw [2048 x float], ptr @pow_table, i64 0, i64 %12
  store float %11, ptr %13, align 4, !tbaa !27
  %14 = fmul nsz double %7, 0x3FE6A09E667F3BCD
  %15 = fptrunc nsz double %14 to float
  %16 = or disjoint i64 %indvars.iv, 1024
  %17 = getelementptr inbounds nuw [2048 x float], ptr @pow_table, i64 0, i64 %16
  store float %15, ptr %17, align 4, !tbaa !27
  %18 = fdiv nsz double 5.000000e-01, %7
  %19 = fptrunc nsz double %18 to float
  %20 = sub nuw nsw i64 2048, %indvars.iv
  %21 = getelementptr inbounds nuw [2048 x float], ptr @pow_table, i64 0, i64 %20
  store float %19, ptr %21, align 4, !tbaa !27
  %indvars.iv.next = add nuw nsw i64 %indvars.iv, 1
  %exitcond.not = icmp eq i64 %indvars.iv.next, 513
  br i1 %exitcond.not, label %1, label %2, !llvm.loop !81
}